target datalayout = "e-m:e-p270:32:32-p271:32:32-p272:64:64-i64:64-i128:128-f80:128-n8:16:32:64-S128"
target triple = "x86_64-pc-linux-gnu"

@ungroup_3_in_7_bits_tab = internal global [128 x [3 x i8]] zeroinitializer, align 16
@ff_ac3_ungroup_3_in_5_bits_tab = external constant [32 x [3 x i8]], align 16
@b1_mantissas = internal global [32 x [3 x i32]] zeroinitializer, align 16
@b2_mantissas = internal global [128 x [3 x i32]] zeroinitializer, align 16
@b4_mantissas = internal global [128 x [2 x i32]] zeroinitializer, align 16
@b3_mantissas = internal global [8 x i32] zeroinitializer, align 16
@b5_mantissas = internal global [16 x i32] zeroinitializer, align 16

; Function Attrs: inlinehint nounwind uwtable
define internal i32 @symmetric_dequant(i32 noundef %0, i32 noundef %1) #5 {
  %3 = alloca i32, align 4
  %4 = alloca i32, align 4
  store i32 %0, ptr %3, align 4, !tbaa !42
  store i32 %1, ptr %4, align 4, !tbaa !42
  %5 = load i32, ptr %3, align 4, !tbaa !42
  %6 = load i32, ptr %4, align 4, !tbaa !42
  %7 = ashr i32 %6, 1
  %8 = sub nsw i32 %5, %7
  %9 = mul nsw i32 %8, 16777216
  %10 = load i32, ptr %4, align 4, !tbaa !42
  %11 = sdiv i32 %9, %10
  ret i32 %11
}

; Function Attrs: cold nounwind optsize uwtable
define internal void @ac3_tables_init() #0 {
  %1 = alloca i32, align 4
  call void @llvm.lifetime.start.p0(i64 4, ptr %1) #13
  store i32 0, ptr %1, align 4, !tbaa !42
  br label %2

2:                                                ; preds = %29, %0
  %3 = load i32, ptr %1, align 4, !tbaa !42
  %4 = icmp slt i32 %3, 128
  br i1 %4, label %5, label %32

5:                                                ; preds = %2
  %6 = load i32, ptr %1, align 4, !tbaa !42
  %7 = sdiv i32 %6, 25
  %8 = trunc i32 %7 to i8
  %9 = load i32, ptr %1, align 4, !tbaa !42
  %10 = sext i32 %9 to i64
  %11 = getelementptr inbounds [128 x [3 x i8]], ptr @ungroup_3_in_7_bits_tab, i64 0, i64 %10
  %12 = getelementptr inbounds [3 x i8], ptr %11, i64 0, i64 0
  store i8 %8, ptr %12, align 1, !tbaa !59
  %13 = load i32, ptr %1, align 4, !tbaa !42
  %14 = srem i32 %13, 25
  %15 = sdiv i32 %14, 5
  %16 = trunc i32 %15 to i8
  %17 = load i32, ptr %1, align 4, !tbaa !42
  %18 = sext i32 %17 to i64
  %19 = getelementptr inbounds [128 x [3 x i8]], ptr @ungroup_3_in_7_bits_tab, i64 0, i64 %18
  %20 = getelementptr inbounds [3 x i8], ptr %19, i64 0, i64 1
  store i8 %16, ptr %20, align 1, !tbaa !59
  %21 = load i32, ptr %1, align 4, !tbaa !42
  %22 = srem i32 %21, 25
  %23 = srem i32 %22, 5
  %24 = trunc i32 %23 to i8
  %25 = load i32, ptr %1, align 4, !tbaa !42
  %26 = sext i32 %25 to i64
  %27 = getelementptr inbounds [128 x [3 x i8]], ptr @ungroup_3_in_7_bits_tab, i64 0, i64 %26
  %28 = getelementptr inbounds [3 x i8], ptr %27, i64 0, i64 2
  store i8 %24, ptr %28, align 1, !tbaa !59
  br label %29

29:                                               ; preds = %5
  %30 = load i32, ptr %1, align 4, !tbaa !42
  %31 = add nsw i32 %30, 1
  store i32 %31, ptr %1, align 4, !tbaa !42
  br label %2, !llvm.loop !142

32:                                               ; preds = %2
  store i32 0, ptr %1, align 4, !tbaa !42
  br label %33

33:                                               ; preds = %70, %32
  %34 = load i32, ptr %1, align 4, !tbaa !42
  %35 = icmp slt i32 %34, 32
  br i1 %35, label %36, label %73

36:                                               ; preds = %33
  %37 = load i32, ptr %1, align 4, !tbaa !42
  %38 = sext i32 %37 to i64
  %39 = getelementptr inbounds [32 x [3 x i8]], ptr @ff_ac3_ungroup_3_in_5_bits_tab, i64 0, i64 %38
  %40 = getelementptr inbounds [3 x i8], ptr %39, i64 0, i64 0
  %41 = load i8, ptr %40, align 1, !tbaa !59
  %42 = zext i8 %41 to i32
  %43 = call i32 @symmetric_dequant(i32 noundef %42, i32 noundef 3)
  %44 = load i32, ptr %1, align 4, !tbaa !42
  %45 = sext i32 %44 to i64
  %46 = getelementptr inbounds [32 x [3 x i32]], ptr @b1_mantissas, i64 0, i64 %45
  %47 = getelementptr inbounds [3 x i32], ptr %46, i64 0, i64 0
  store i32 %43, ptr %47, align 4, !tbaa !42
  %48 = load i32, ptr %1, align 4, !tbaa !42
  %49 = sext i32 %48 to i64
  %50 = getelementptr inbounds [32 x [3 x i8]], ptr @ff_ac3_ungroup_3_in_5_bits_tab, i64 0, i64 %49
  %51 = getelementptr inbounds [3 x i8], ptr %50, i64 0, i64 1
  %52 = load i8, ptr %51, align 1, !tbaa !59
  %53 = zext i8 %52 to i32
  %54 = call i32 @symmetric_dequant(i32 noundef %53, i32 noundef 3)
  %55 = load i32, ptr %1, align 4, !tbaa !42
  %56 = sext i32 %55 to i64
  %57 = getelementptr inbounds [32 x [3 x i32]], ptr @b1_mantissas, i64 0, i64 %56
  %58 = getelementptr inbounds [3 x i32], ptr %57, i64 0, i64 1
  store i32 %54, ptr %58, align 4, !tbaa !42
  %59 = load i32, ptr %1, align 4, !tbaa !42
  %60 = sext i32 %59 to i64
  %61 = getelementptr inbounds [32 x [3 x i8]], ptr @ff_ac3_ungroup_3_in_5_bits_tab, i64 0, i64 %60
  %62 = getelementptr inbounds [3 x i8], ptr %61, i64 0, i64 2
  %63 = load i8, ptr %62, align 1, !tbaa !59
  %64 = zext i8 %63 to i32
  %65 = call i32 @symmetric_dequant(i32 noundef %64, i32 noundef 3)
  %66 = load i32, ptr %1, align 4, !tbaa !42
  %67 = sext i32 %66 to i64
  %68 = getelementptr inbounds [32 x [3 x i32]], ptr @b1_mantissas, i64 0, i64 %67
  %69 = getelementptr inbounds [3 x i32], ptr %68, i64 0, i64 2
  store i32 %65, ptr %69, align 4, !tbaa !42
  br label %70

70:                                               ; preds = %36
  %71 = load i32, ptr %1, align 4, !tbaa !42
  %72 = add nsw i32 %71, 1
  store i32 %72, ptr %1, align 4, !tbaa !42
  br label %33, !llvm.loop !143

73:                                               ; preds = %33
  store i32 0, ptr %1, align 4, !tbaa !42
  br label %74

74:                                               ; preds = %125, %73
  %75 = load i32, ptr %1, align 4, !tbaa !42
  %76 = icmp slt i32 %75, 128
  br i1 %76, label %77, label %128

77:                                               ; preds = %74
  %78 = load i32, ptr %1, align 4, !tbaa !42
  %79 = sext i32 %78 to i64
  %80 = getelementptr inbounds [128 x [3 x i8]], ptr @ungroup_3_in_7_bits_tab, i64 0, i64 %79
  %81 = getelementptr inbounds [3 x i8], ptr %80, i64 0, i64 0
  %82 = load i8, ptr %81, align 1, !tbaa !59
  %83 = zext i8 %82 to i32
  %84 = call i32 @symmetric_dequant(i32 noundef %83, i32 noundef 5)
  %85 = load i32, ptr %1, align 4, !tbaa !42
  %86 = sext i32 %85 to i64
  %87 = getelementptr inbounds [128 x [3 x i32]], ptr @b2_mantissas, i64 0, i64 %86
  %88 = getelementptr inbounds [3 x i32], ptr %87, i64 0, i64 0
  store i32 %84, ptr %88, align 4, !tbaa !42
  %89 = load i32, ptr %1, align 4, !tbaa !42
  %90 = sext i32 %89 to i64
  %91 = getelementptr inbounds [128 x [3 x i8]], ptr @ungroup_3_in_7_bits_tab, i64 0, i64 %90
  %92 = getelementptr inbounds [3 x i8], ptr %91, i64 0, i64 1
  %93 = load i8, ptr %92, align 1, !tbaa !59
  %94 = zext i8 %93 to i32
  %95 = call i32 @symmetric_dequant(i32 noundef %94, i32 noundef 5)
  %96 = load i32, ptr %1, align 4, !tbaa !42
  %97 = sext i32 %96 to i64
  %98 = getelementptr inbounds [128 x [3 x i32]], ptr @b2_mantissas, i64 0, i64 %97
  %99 = getelementptr inbounds [3 x i32], ptr %98, i64 0, i64 1
  store i32 %95, ptr %99, align 4, !tbaa !42
  %100 = load i32, ptr %1, align 4, !tbaa !42
  %101 = sext i32 %100 to i64
  %102 = getelementptr inbounds [128 x [3 x i8]], ptr @ungroup_3_in_7_bits_tab, i64 0, i64 %101
  %103 = getelementptr inbounds [3 x i8], ptr %102, i64 0, i64 2
  %104 = load i8, ptr %103, align 1, !tbaa !59
  %105 = zext i8 %104 to i32
  %106 = call i32 @symmetric_dequant(i32 noundef %105, i32 noundef 5)
  %107 = load i32, ptr %1, align 4, !tbaa !42
  %108 = sext i32 %107 to i64
  %109 = getelementptr inbounds [128 x [3 x i32]], ptr @b2_mantissas, i64 0, i64 %108
  %110 = getelementptr inbounds [3 x i32], ptr %109, i64 0, i64 2
  store i32 %106, ptr %110, align 4, !tbaa !42
  %111 = load i32, ptr %1, align 4, !tbaa !42
  %112 = sdiv i32 %111, 11
  %113 = call i32 @symmetric_dequant(i32 noundef %112, i32 noundef 11)
  %114 = load i32, ptr %1, align 4, !tbaa !42
  %115 = sext i32 %114 to i64
  %116 = getelementptr inbounds [128 x [2 x i32]], ptr @b4_mantissas, i64 0, i64 %115
  %117 = getelementptr inbounds [2 x i32], ptr %116, i64 0, i64 0
  store i32 %113, ptr %117, align 8, !tbaa !42
  %118 = load i32, ptr %1, align 4, !tbaa !42
  %119 = srem i32 %118, 11
  %120 = call i32 @symmetric_dequant(i32 noundef %119, i32 noundef 11)
  %121 = load i32, ptr %1, align 4, !tbaa !42
  %122 = sext i32 %121 to i64
  %123 = getelementptr inbounds [128 x [2 x i32]], ptr @b4_mantissas, i64 0, i64 %122
  %124 = getelementptr inbounds [2 x i32], ptr %123, i64 0, i64 1
  store i32 %120, ptr %124, align 4, !tbaa !42
  br label %125

125:                                              ; preds = %77
  %126 = load i32, ptr %1, align 4, !tbaa !42
  %127 = add nsw i32 %126, 1
  store i32 %127, ptr %1, align 4, !tbaa !42
  br label %74, !llvm.loop !144

128:                                              ; preds = %74
  store i32 0, ptr %1, align 4, !tbaa !42
  br label %129

129:                                              ; preds = %138, %128
  %130 = load i32, ptr %1, align 4, !tbaa !42
  %131 = icmp slt i32 %130, 7
  br i1 %131, label %132, label %141

132:                                              ; preds = %129
  %133 = load i32, ptr %1, align 4, !tbaa !42
  %134 = call i32 @symmetric_dequant(i32 noundef %133, i32 noundef 7)
  %135 = load i32, ptr %1, align 4, !tbaa !42
  %136 = sext i32 %135 to i64
  %137 = getelementptr inbounds [8 x i32], ptr @b3_mantissas, i64 0, i64 %136
  store i32 %134, ptr %137, align 4, !tbaa !42
  br label %138

138:                                              ; preds = %132
  %139 = load i32, ptr %1, align 4, !tbaa !42
  %140 = add nsw i32 %139, 1
  store i32 %140, ptr %1, align 4, !tbaa !42
  br label %129, !llvm.loop !145

141:                                              ; preds = %129
  store i32 0, ptr %1, align 4, !tbaa !42
  br label %142

142:                                              ; preds = %151, %141
  %143 = load i32, ptr %1, align 4, !tbaa !42
  %144 = icmp slt i32 %143, 15
  br i1 %144, label %145, label %154

145:                                              ; preds = %142
  %146 = load i32, ptr %1, align 4, !tbaa !42
  %147 = call i32 @symmetric_dequant(i32 noundef %146, i32 noundef 15)
  %148 = load i32, ptr %1, align 4, !tbaa !42
  %149 = sext i32 %148 to i64
  %150 = getelementptr inbounds [16 x i32], ptr @b5_mantissas, i64 0, i64 %149
  store i32 %147, ptr %150, align 4, !tbaa !42
  br label %151

151:                                              ; preds = %145
  %152 = load i32, ptr %1, align 4, !tbaa !42
  %153 = add nsw i32 %152, 1
  store i32 %153, ptr %1, align 4, !tbaa !42
  br label %142, !llvm.loop !146

154:                                              ; preds = %142
  call void @llvm.lifetime.end.p0(i64 4, ptr %1) #13
  ret void
}