; Function Attrs: cold nofree norecurse nosync nounwind optsize memory(readwrite, argmem: none, inaccessiblemem: none) uwtable
define internal void @ac3_tables_init() #4 {
  br label %1

1:                                                ; preds = %0, %1
  %indvars.iv = phi i64 [ 0, %0 ], [ %indvars.iv.next, %1 ]
  %.lhs.trunc = trunc i64 %indvars.iv to i8
  %2 = udiv i8 %.lhs.trunc, 25
  %3 = getelementptr inbounds nuw [128 x [3 x i8]], ptr @ungroup_3_in_7_bits_tab, i64 0, i64 %indvars.iv
  store i8 %2, ptr %3, align 1, !tbaa !44
  %4 = urem i8 %.lhs.trunc, 25
  %5 = udiv i8 %4, 5
  %6 = getelementptr inbounds nuw i8, ptr %3, i64 1
  store i8 %5, ptr %6, align 1, !tbaa !44
  %7 = urem i8 %4, 5
  %8 = getelementptr inbounds nuw i8, ptr %3, i64 2
  store i8 %7, ptr %8, align 1, !tbaa !44
  %indvars.iv.next = add nuw nsw i64 %indvars.iv, 1
  %exitcond.not = icmp eq i64 %indvars.iv.next, 128
  br i1 %exitcond.not, label %.preheader48, label %1, !llvm.loop !268

.preheader48:                                     ; preds = %1, %.preheader48
  %indvars.iv55 = phi i64 [ %indvars.iv.next56, %.preheader48 ], [ 0, %1 ]
  %9 = getelementptr inbounds nuw [32 x [3 x i8]], ptr @ff_ac3_ungroup_3_in_5_bits_tab, i64 0, i64 %indvars.iv55
  %10 = load i8, ptr %9, align 1, !tbaa !44
  %11 = zext i8 %10 to i32
  %12 = shl nuw i32 %11, 24
  %13 = add i32 %12, -16777216
  %14 = sdiv i32 %13, 3
  %15 = getelementptr inbounds nuw [32 x [3 x i32]], ptr @b1_mantissas, i64 0, i64 %indvars.iv55
  store i32 %14, ptr %15, align 4, !tbaa !43
  %16 = getelementptr inbounds nuw i8, ptr %9, i64 1
  %17 = load i8, ptr %16, align 1, !tbaa !44
  %18 = zext i8 %17 to i32
  %19 = shl nuw i32 %18, 24
  %20 = add i32 %19, -16777216
  %21 = sdiv i32 %20, 3
  %22 = getelementptr inbounds nuw i8, ptr %15, i64 4
  store i32 %21, ptr %22, align 4, !tbaa !43
  %23 = getelementptr inbounds nuw i8, ptr %9, i64 2
  %24 = load i8, ptr %23, align 1, !tbaa !44
  %25 = zext i8 %24 to i32
  %26 = shl nuw i32 %25, 24
  %27 = add i32 %26, -16777216
  %28 = sdiv i32 %27, 3
  %29 = getelementptr inbounds nuw i8, ptr %15, i64 8
  store i32 %28, ptr %29, align 4, !tbaa !43
  %indvars.iv.next56 = add nuw nsw i64 %indvars.iv55, 1
  %exitcond58.not = icmp eq i64 %indvars.iv.next56, 32
  br i1 %exitcond58.not, label %.preheader47, label %.preheader48, !llvm.loop !269

.preheader47:                                     ; preds = %.preheader48, %.preheader47
  %indvars.iv59 = phi i64 [ %indvars.iv.next60, %.preheader47 ], [ 0, %.preheader48 ]
  %30 = getelementptr inbounds nuw [128 x [3 x i8]], ptr @ungroup_3_in_7_bits_tab, i64 0, i64 %indvars.iv59
  %31 = load i8, ptr %30, align 1, !tbaa !44
  %32 = zext i8 %31 to i32
  %33 = shl nuw i32 %32, 24
  %34 = add i32 %33, -33554432
  %35 = sdiv i32 %34, 5
  %36 = getelementptr inbounds nuw [128 x [3 x i32]], ptr @b2_mantissas, i64 0, i64 %indvars.iv59
  store i32 %35, ptr %36, align 4, !tbaa !43
  %37 = getelementptr inbounds nuw i8, ptr %30, i64 1
  %38 = load i8, ptr %37, align 1, !tbaa !44
  %39 = zext i8 %38 to i32
  %40 = shl nuw i32 %39, 24
  %41 = add i32 %40, -33554432
  %42 = sdiv i32 %41, 5
  %43 = getelementptr inbounds nuw i8, ptr %36, i64 4
  store i32 %42, ptr %43, align 4, !tbaa !43
  %44 = getelementptr inbounds nuw i8, ptr %30, i64 2
  %45 = load i8, ptr %44, align 1, !tbaa !44
  %46 = zext i8 %45 to i32
  %47 = shl nuw i32 %46, 24
  %48 = add i32 %47, -33554432
  %49 = sdiv i32 %48, 5
  %50 = getelementptr inbounds nuw i8, ptr %36, i64 8
  store i32 %49, ptr %50, align 4, !tbaa !43
  %.lhs.trunc42 = trunc i64 %indvars.iv59 to i8
  %51 = udiv i8 %.lhs.trunc42, 11
  %.zext43 = zext nneg i8 %51 to i32
  %52 = shl nuw nsw i32 %.zext43, 24
  %53 = add nsw i32 %52, -83886080
  %54 = sdiv i32 %53, 11
  %55 = getelementptr inbounds nuw [128 x [2 x i32]], ptr @b4_mantissas, i64 0, i64 %indvars.iv59
  store i32 %54, ptr %55, align 8, !tbaa !43
  %56 = urem i8 %.lhs.trunc42, 11
  %.zext45 = zext nneg i8 %56 to i32
  %57 = shl nuw nsw i32 %.zext45, 24
  %58 = add nsw i32 %57, -83886080
  %59 = sdiv i32 %58, 11
  %60 = getelementptr inbounds nuw i8, ptr %55, i64 4
  store i32 %59, ptr %60, align 4, !tbaa !43
  %indvars.iv.next60 = add nuw nsw i64 %indvars.iv59, 1
  %exitcond62.not = icmp eq i64 %indvars.iv.next60, 128
  br i1 %exitcond62.not, label %.preheader46, label %.preheader47, !llvm.loop !270

.preheader46:                                     ; preds = %.preheader47, %.preheader46
  %indvars.iv63 = phi i64 [ %indvars.iv.next64, %.preheader46 ], [ 0, %.preheader47 ]
  %indvars.iv63.tr = trunc i64 %indvars.iv63 to i32
  %61 = shl i32 %indvars.iv63.tr, 24
  %62 = add i32 %61, -50331648
  %63 = sdiv i32 %62, 7
  %64 = getelementptr inbounds nuw [8 x i32], ptr @b3_mantissas, i64 0, i64 %indvars.iv63
  store i32 %63, ptr %64, align 4, !tbaa !43
  %indvars.iv.next64 = add nuw nsw i64 %indvars.iv63, 1
  %exitcond66.not = icmp eq i64 %indvars.iv.next64, 7
  br i1 %exitcond66.not, label %.preheader, label %.preheader46, !llvm.loop !271

.preheader:                                       ; preds = %.preheader46, %.preheader
  %indvars.iv67 = phi i64 [ %indvars.iv.next68, %.preheader ], [ 0, %.preheader46 ]
  %indvars.iv67.tr = trunc i64 %indvars.iv67 to i32
  %65 = shl i32 %indvars.iv67.tr, 24
  %66 = add i32 %65, -117440512
  %67 = sdiv i32 %66, 15
  %68 = getelementptr inbounds nuw [16 x i32], ptr @b5_mantissas, i64 0, i64 %indvars.iv67
  store i32 %67, ptr %68, align 4, !tbaa !43
  %indvars.iv.next68 = add nuw nsw i64 %indvars.iv67, 1
  %exitcond70.not = icmp eq i64 %indvars.iv.next68, 15
  br i1 %exitcond70.not, label %69, label %.preheader, !llvm.loop !272

69:                                               ; preds = %.preheader
  ret void
}